target datalayout = "e-m:e-p270:32:32-p271:32:32-p272:64:64-i64:64-i128:128-f80:128-n8:16:32:64-S128"
target triple = "x86_64-pc-linux-gnu"

%"class.icu_77::UObject" = type { ptr }
%"class.icu_77::UnicodeString" = type { %"class.icu_77::Replaceable", %"union.icu_77::UnicodeString::StackBufferOrFields" }
%"class.icu_77::Replaceable" = type { %"class.icu_77::UObject" }
%"union.icu_77::UnicodeString::StackBufferOrFields" = type { %struct.anon.0, [32 x i8] }
%struct.anon.0 = type { i16, i32, i32, ptr }
%"class.icu_77::StringPiece" = type <{ ptr, i32, [4 x i8] }>
%"class.icu_77::Formattable" = type { %"class.icu_77::UObject", %union.anon, ptr, ptr, i32, %"class.icu_77::UnicodeString" }
%union.anon = type { %struct.anon.1 }
%struct.anon.1 = type { ptr, i32 }

; Function Attrs: mustprogress uwtable
define noundef nonnull align 8 dereferenceable(64) ptr @_ZNK6icu_7712NumberFormat6formatENS_11StringPieceERNS_13UnicodeStringEPNS_21FieldPositionIteratorER10UErrorCode(ptr noundef nonnull align 8 dereferenceable(60) %0, ptr %1, i32 %2, ptr noundef nonnull align 8 dereferenceable(64) %3, ptr noundef %4, ptr noundef nonnull align 4 dereferenceable(4) %5) unnamed_addr #1 align 2 personality ptr @__gxx_personality_v0 {
  %7 = alloca %"class.icu_77::StringPiece", align 8
  %8 = alloca ptr, align 8
  %9 = alloca ptr, align 8
  %10 = alloca ptr, align 8
  %11 = alloca ptr, align 8
  %12 = alloca %"class.icu_77::Formattable", align 8
  %13 = alloca %"class.icu_77::StringPiece", align 8
  %14 = alloca ptr, align 8
  %15 = alloca i32, align 4
  %16 = getelementptr inbounds nuw { ptr, i32 }, ptr %7, i32 0, i32 0
  store ptr %1, ptr %16, align 8
  %17 = getelementptr inbounds nuw { ptr, i32 }, ptr %7, i32 0, i32 1
  store i32 %2, ptr %17, align 8
  store ptr %0, ptr %8, align 8, !tbaa !40
  store ptr %3, ptr %9, align 8, !tbaa !38
  store ptr %4, ptr %10, align 8, !tbaa !68
  store ptr %5, ptr %11, align 8, !tbaa !22
  %18 = load ptr, ptr %8, align 8
  call void @llvm.lifetime.start.p0(i64 112, ptr %12) #15
  call void @_ZN6icu_7711FormattableC1Ev(ptr noundef nonnull align 8 dereferenceable(112) %12)
  call void @llvm.memcpy.p0.p0.i64(ptr align 8 %13, ptr align 8 %7, i64 16, i1 false)
  %19 = load ptr, ptr %11, align 8, !tbaa !22
  %20 = getelementptr inbounds nuw { ptr, i32 }, ptr %13, i32 0, i32 0
  %21 = load ptr, ptr %20, align 8
  %22 = getelementptr inbounds nuw { ptr, i32 }, ptr %13, i32 0, i32 1
  %23 = load i32, ptr %22, align 8
  invoke void @_ZN6icu_7711Formattable16setDecimalNumberENS_11StringPieceER10UErrorCode(ptr noundef nonnull align 8 dereferenceable(112) %12, ptr %21, i32 %23, ptr noundef nonnull align 4 dereferenceable(4) %19)
          to label %24 unwind label %34

24:                                               ; preds = %6
  %25 = load ptr, ptr %9, align 8, !tbaa !38
  %26 = load ptr, ptr %10, align 8, !tbaa !68
  %27 = load ptr, ptr %11, align 8, !tbaa !22
  %28 = load ptr, ptr %18, align 8, !tbaa !30
  %29 = getelementptr inbounds ptr, ptr %28, i64 6
  %30 = load ptr, ptr %29, align 8
  %31 = invoke noundef nonnull align 8 dereferenceable(64) ptr %30(ptr noundef nonnull align 8 dereferenceable(60) %18, ptr noundef nonnull align 8 dereferenceable(112) %12, ptr noundef nonnull align 8 dereferenceable(64) %25, ptr noundef %26, ptr noundef nonnull align 4 dereferenceable(4) %27)
          to label %32 unwind label %34

32:                                               ; preds = %24
  %33 = load ptr, ptr %9, align 8, !tbaa !38
  call void @_ZN6icu_7711FormattableD1Ev(ptr noundef nonnull align 8 dereferenceable(112) %12) #15
  call void @llvm.lifetime.end.p0(i64 112, ptr %12) #15
  ret ptr %33

34:                                               ; preds = %24, %6
  %35 = landingpad { ptr, i32 }
          cleanup
  %36 = extractvalue { ptr, i32 } %35, 0
  store ptr %36, ptr %14, align 8
  %37 = extractvalue { ptr, i32 } %35, 1
  store i32 %37, ptr %15, align 4
  call void @_ZN6icu_7711FormattableD1Ev(ptr noundef nonnull align 8 dereferenceable(112) %12) #15
  call void @llvm.lifetime.end.p0(i64 112, ptr %12) #15
  br label %38

38:                                               ; preds = %34
  %39 = load ptr, ptr %14, align 8
  %40 = load i32, ptr %15, align 4
  %41 = insertvalue { ptr, i32 } poison, ptr %39, 0
  %42 = insertvalue { ptr, i32 } %41, i32 %40, 1
  resume { ptr, i32 } %42
}