; Function Attrs: mustprogress uwtable
define noundef nonnull align 8 dereferenceable(64) ptr @_ZNK6icu_7712NumberFormat6formatENS_11StringPieceERNS_13UnicodeStringEPNS_21FieldPositionIteratorER10UErrorCode(ptr noundef nonnull align 8 dereferenceable(60) %0, ptr %1, i32 %2, ptr noundef nonnull returned align 8 dereferenceable(64) %3, ptr noundef %4, ptr noundef nonnull align 4 dereferenceable(4) %5) unnamed_addr #1 align 2 personality ptr @__gxx_personality_v0 {
  %7 = alloca %"class.icu_77::Formattable", align 8
  call void @llvm.lifetime.start.p0(i64 112, ptr nonnull %7) #22
  call void @_ZN6icu_7711FormattableC1Ev(ptr noundef nonnull align 8 dereferenceable(112) %7)
  invoke void @_ZN6icu_7711Formattable16setDecimalNumberENS_11StringPieceER10UErrorCode(ptr noundef nonnull align 8 dereferenceable(112) %7, ptr %1, i32 %2, ptr noundef nonnull align 4 dereferenceable(4) %5)
          to label %8 unwind label %14

8:                                                ; preds = %6
  %9 = load ptr, ptr %0, align 8, !tbaa !15
  %10 = getelementptr inbounds nuw i8, ptr %9, i64 48
  %11 = load ptr, ptr %10, align 8
  %12 = invoke noundef nonnull align 8 dereferenceable(64) ptr %11(ptr noundef nonnull align 8 dereferenceable(60) %0, ptr noundef nonnull align 8 dereferenceable(112) %7, ptr noundef nonnull align 8 dereferenceable(64) %3, ptr noundef %4, ptr noundef nonnull align 4 dereferenceable(4) %5)
          to label %13 unwind label %14

13:                                               ; preds = %8
  call void @_ZN6icu_7711FormattableD1Ev(ptr noundef nonnull align 8 dereferenceable(112) %7) #22
  call void @llvm.lifetime.end.p0(i64 112, ptr nonnull %7) #22
  ret ptr %3

14:                                               ; preds = %8, %6
  %15 = landingpad { ptr, i32 }
          cleanup
  call void @_ZN6icu_7711FormattableD1Ev(ptr noundef nonnull align 8 dereferenceable(112) %7) #22
  call void @llvm.lifetime.end.p0(i64 112, ptr nonnull %7) #22
  resume { ptr, i32 } %15
}